target datalayout = "e-m:e-p270:32:32-p271:32:32-p272:64:64-i64:64-i128:128-f80:128-n8:16:32:64-S128"
target triple = "x86_64-pc-linux-gnu"

%struct.ML_KEM_VINFO = type { ptr, i64, i64, i64, i64, i64, i64, i64, i32, i32, i32, i32, i32, i32 }

; Function Attrs: nounwind uwtable
define ptr @ossl_ml_kem_get_vinfo(i32 noundef %0) #0 {
  %2 = alloca ptr, align 8
  %3 = alloca i32, align 4
  store i32 %0, ptr %3, align 4, !tbaa !23
  %4 = load i32, ptr %3, align 4, !tbaa !23
  switch i32 %4, label %8 [
    i32 1454, label %5
    i32 1455, label %6
    i32 1456, label %7
  ]

5:                                                ; preds = %1
  store ptr @vinfo_map, ptr %2, align 8
  br label %9

6:                                                ; preds = %1
  store ptr getelementptr inbounds ([3 x %struct.ML_KEM_VINFO], ptr @vinfo_map, i64 0, i64 1), ptr %2, align 8
  br label %9

7:                                                ; preds = %1
  store ptr getelementptr inbounds ([3 x %struct.ML_KEM_VINFO], ptr @vinfo_map, i64 0, i64 2), ptr %2, align 8
  br label %9

8:                                                ; preds = %1
  store ptr null, ptr %2, align 8
  br label %9

9:                                                ; preds = %8, %7, %6, %5
  %10 = load ptr, ptr %2, align 8
  ret ptr %10
}